target datalayout = "e-m:e-p270:32:32-p271:32:32-p272:64:64-i64:64-i128:128-f80:128-n8:16:32:64-S128"
target triple = "x86_64-pc-linux-gnu"

%struct.test_fixture = type { ptr, i32, ptr, ptr }
%struct.ossl_cmp_pkiheader_st = type { ptr, ptr, ptr, ptr, ptr, ptr, ptr, ptr, ptr, ptr, ptr, ptr }
%struct.ossl_cmp_itav_st = type { ptr, %union.anon.0 }
%union.anon.0 = type { ptr }

@.str.9 = private unnamed_addr constant [33 x i8] c"test_HDR_generalInfo_push1_items\00", align 1
@.str.13 = private unnamed_addr constant [31 x i8] c"../openssl/test/cmp_hdr_test.c\00", align 1
@.str.18 = private unnamed_addr constant [2 x i8] c"1\00", align 1
@.str.27 = private unnamed_addr constant [2 x i8] c"0\00", align 1
@__const.execute_HDR_generalInfo_push1_items_test.oid = private unnamed_addr constant [8 x i8] c"1.2.3.4\00", align 1
@.str.55 = private unnamed_addr constant [8 x i8] c"asn1int\00", align 1
@.str.56 = private unnamed_addr constant [4 x i8] c"val\00", align 1
@.str.57 = private unnamed_addr constant [30 x i8] c"ASN1_INTEGER_set(asn1int, 88)\00", align 1
@.str.58 = private unnamed_addr constant [54 x i8] c"itav = OSSL_CMP_ITAV_create(OBJ_txt2obj(oid, 1), val)\00", align 1
@.str.59 = private unnamed_addr constant [45 x i8] c"OSSL_CMP_ITAV_push0_stack_item(&itavs, itav)\00", align 1
@.str.60 = private unnamed_addr constant [58 x i8] c"ossl_cmp_hdr_generalInfo_push1_items(fixture->hdr, itavs)\00", align 1
@.str.61 = private unnamed_addr constant [30 x i8] c"memcmp(oid, buf, sizeof(oid))\00", align 1
@.str.62 = private unnamed_addr constant [49 x i8] c"ASN1_TYPE_cmp(itav->infoValue.other, pushed_val)\00", align 1

; Function Attrs: inlinehint nounwind uwtable
define internal ptr @ossl_check_OSSL_CMP_ITAV_freefunc_type(ptr noundef %0) #5 {
  %2 = alloca ptr, align 8
  store ptr %0, ptr %2, align 8, !tbaa !60
  %3 = load ptr, ptr %2, align 8, !tbaa !60
  ret ptr %3
}

; Function Attrs: inlinehint nounwind uwtable
define internal ptr @ossl_check_OSSL_CMP_ITAV_sk_type(ptr noundef %0) #5 {
  %2 = alloca ptr, align 8
  store ptr %0, ptr %2, align 8, !tbaa !57
  %3 = load ptr, ptr %2, align 8, !tbaa !57
  ret ptr %3
}

; Function Attrs: inlinehint nounwind uwtable
define internal ptr @ossl_check_const_OSSL_CMP_ITAV_sk_type(ptr noundef %0) #5 {
  %2 = alloca ptr, align 8
  store ptr %0, ptr %2, align 8, !tbaa !57
  %3 = load ptr, ptr %2, align 8, !tbaa !57
  ret ptr %3
}

; Function Attrs: nounwind uwtable
define internal void @tear_down(ptr noundef %0) #0 {
  %2 = alloca ptr, align 8
  store ptr %0, ptr %2, align 8, !tbaa !4
  %3 = load ptr, ptr %2, align 8, !tbaa !4
  %4 = getelementptr inbounds nuw %struct.test_fixture, ptr %3, i32 0, i32 3
  %5 = load ptr, ptr %4, align 8, !tbaa !21
  call void @OSSL_CMP_PKIHEADER_free(ptr noundef %5)
  %6 = load ptr, ptr %2, align 8, !tbaa !4
  %7 = getelementptr inbounds nuw %struct.test_fixture, ptr %6, i32 0, i32 2
  %8 = load ptr, ptr %7, align 8, !tbaa !16
  call void @OSSL_CMP_CTX_free(ptr noundef %8)
  %9 = load ptr, ptr %2, align 8, !tbaa !4
  call void @CRYPTO_free(ptr noundef %9, ptr noundef @.str.13, i32 noundef 28)
  ret void
}

; Function Attrs: nounwind uwtable
define internal i32 @execute_HDR_generalInfo_push1_items_test(ptr noundef %0) #0 {
  %2 = alloca i32, align 4
  %3 = alloca ptr, align 8
  %4 = alloca [8 x i8], align 1
  %5 = alloca [20 x i8], align 16
  %6 = alloca ptr, align 8
  %7 = alloca ptr, align 8
  %8 = alloca ptr, align 8
  %9 = alloca ptr, align 8
  %10 = alloca ptr, align 8
  %11 = alloca ptr, align 8
  %12 = alloca ptr, align 8
  %13 = alloca i32, align 4
  %14 = alloca i32, align 4
  store ptr %0, ptr %3, align 8, !tbaa !4
  call void @llvm.lifetime.start.p0(i64 8, ptr %4) #7
  call void @llvm.memcpy.p0.p0.i64(ptr align 1 %4, ptr align 1 @__const.execute_HDR_generalInfo_push1_items_test.oid, i64 8, i1 false)
  call void @llvm.lifetime.start.p0(i64 20, ptr %5) #7
  call void @llvm.lifetime.start.p0(i64 8, ptr %6) #7
  call void @llvm.lifetime.start.p0(i64 8, ptr %7) #7
  call void @llvm.lifetime.start.p0(i64 8, ptr %8) #7
  store ptr null, ptr %8, align 8, !tbaa !57
  call void @llvm.lifetime.start.p0(i64 8, ptr %9) #7
  call void @llvm.lifetime.start.p0(i64 8, ptr %10) #7
  %15 = call ptr @ASN1_INTEGER_new()
  store ptr %15, ptr %10, align 8, !tbaa !22
  call void @llvm.lifetime.start.p0(i64 8, ptr %11) #7
  %16 = call ptr @ASN1_TYPE_new()
  store ptr %16, ptr %11, align 8, !tbaa !58
  call void @llvm.lifetime.start.p0(i64 8, ptr %12) #7
  call void @llvm.lifetime.start.p0(i64 4, ptr %13) #7
  store i32 0, ptr %13, align 4, !tbaa !9
  %17 = load ptr, ptr %10, align 8, !tbaa !22
  %18 = call i32 @test_ptr(ptr noundef @.str.13, i32 noundef 348, ptr noundef @.str.55, ptr noundef %17)
  %19 = icmp ne i32 %18, 0
  br i1 %19, label %21, label %20

20:                                               ; preds = %1
  store i32 0, ptr %2, align 4
  store i32 1, ptr %14, align 4
  br label %101

21:                                               ; preds = %1
  %22 = load ptr, ptr %11, align 8, !tbaa !58
  %23 = call i32 @test_ptr(ptr noundef @.str.13, i32 noundef 351, ptr noundef @.str.56, ptr noundef %22)
  %24 = icmp ne i32 %23, 0
  br i1 %24, label %25, label %32

25:                                               ; preds = %21
  %26 = load ptr, ptr %10, align 8, !tbaa !22
  %27 = call i32 @ASN1_INTEGER_set(ptr noundef %26, i64 noundef 88)
  %28 = icmp ne i32 %27, 0
  %29 = zext i1 %28 to i32
  %30 = call i32 @test_true(ptr noundef @.str.13, i32 noundef 352, ptr noundef @.str.57, i32 noundef %29)
  %31 = icmp ne i32 %30, 0
  br i1 %31, label %34, label %32

32:                                               ; preds = %25, %21
  %33 = load ptr, ptr %10, align 8, !tbaa !22
  call void @ASN1_INTEGER_free(ptr noundef %33)
  store i32 0, ptr %2, align 4
  store i32 1, ptr %14, align 4
  br label %101

34:                                               ; preds = %25
  %35 = load ptr, ptr %11, align 8, !tbaa !58
  %36 = load ptr, ptr %10, align 8, !tbaa !22
  call void @ASN1_TYPE_set(ptr noundef %35, i32 noundef 2, ptr noundef %36)
  %37 = getelementptr inbounds [8 x i8], ptr %4, i64 0, i64 0
  %38 = call ptr @OBJ_txt2obj(ptr noundef %37, i32 noundef 1)
  %39 = load ptr, ptr %11, align 8, !tbaa !58
  %40 = call ptr @OSSL_CMP_ITAV_create(ptr noundef %38, ptr noundef %39)
  store ptr %40, ptr %6, align 8, !tbaa !54
  %41 = call i32 @test_ptr(ptr noundef @.str.13, i32 noundef 358, ptr noundef @.str.58, ptr noundef %40)
  %42 = icmp ne i32 %41, 0
  br i1 %42, label %45, label %43

43:                                               ; preds = %34
  %44 = load ptr, ptr %11, align 8, !tbaa !58
  call void @ASN1_TYPE_free(ptr noundef %44)
  store i32 0, ptr %2, align 4
  store i32 1, ptr %14, align 4
  br label %101

45:                                               ; preds = %34
  %46 = load ptr, ptr %6, align 8, !tbaa !54
  %47 = call i32 @OSSL_CMP_ITAV_push0_stack_item(ptr noundef %8, ptr noundef %46)
  %48 = icmp ne i32 %47, 0
  %49 = zext i1 %48 to i32
  %50 = call i32 @test_true(ptr noundef @.str.13, i32 noundef 362, ptr noundef @.str.59, i32 noundef %49)
  %51 = icmp ne i32 %50, 0
  br i1 %51, label %54, label %52

52:                                               ; preds = %45
  %53 = load ptr, ptr %6, align 8, !tbaa !54
  call void @OSSL_CMP_ITAV_free(ptr noundef %53)
  store i32 0, ptr %2, align 4
  store i32 1, ptr %14, align 4
  br label %101

54:                                               ; preds = %45
  %55 = load ptr, ptr %3, align 8, !tbaa !4
  %56 = getelementptr inbounds nuw %struct.test_fixture, ptr %55, i32 0, i32 3
  %57 = load ptr, ptr %56, align 8, !tbaa !21
  %58 = load ptr, ptr %8, align 8, !tbaa !57
  %59 = call i32 @ossl_cmp_hdr_generalInfo_push1_items(ptr noundef %57, ptr noundef %58)
  %60 = call i32 @test_int_eq(ptr noundef @.str.13, i32 noundef 368, ptr noundef @.str.60, ptr noundef @.str.18, i32 noundef %59, i32 noundef 1)
  %61 = icmp ne i32 %60, 0
  br i1 %61, label %63, label %62

62:                                               ; preds = %54
  br label %96

63:                                               ; preds = %54
  %64 = load ptr, ptr %3, align 8, !tbaa !4
  %65 = getelementptr inbounds nuw %struct.test_fixture, ptr %64, i32 0, i32 3
  %66 = load ptr, ptr %65, align 8, !tbaa !21
  %67 = getelementptr inbounds nuw %struct.ossl_cmp_pkiheader_st, ptr %66, i32 0, i32 11
  %68 = load ptr, ptr %67, align 8, !tbaa !56
  store ptr %68, ptr %9, align 8, !tbaa !57
  %69 = load ptr, ptr %9, align 8, !tbaa !57
  %70 = call ptr @ossl_check_const_OSSL_CMP_ITAV_sk_type(ptr noundef %69)
  %71 = call ptr @OPENSSL_sk_value(ptr noundef %70, i32 noundef 0)
  store ptr %71, ptr %7, align 8, !tbaa !54
  %72 = getelementptr inbounds [20 x i8], ptr %5, i64 0, i64 0
  %73 = load ptr, ptr %7, align 8, !tbaa !54
  %74 = call ptr @OSSL_CMP_ITAV_get0_type(ptr noundef %73)
  %75 = call i32 @OBJ_obj2txt(ptr noundef %72, i32 noundef 20, ptr noundef %74, i32 noundef 0)
  %76 = getelementptr inbounds [8 x i8], ptr %4, i64 0, i64 0
  %77 = getelementptr inbounds [20 x i8], ptr %5, i64 0, i64 0
  %78 = call i32 @memcmp(ptr noundef %76, ptr noundef %77, i64 noundef 8) #8
  %79 = call i32 @test_int_eq(ptr noundef @.str.13, i32 noundef 373, ptr noundef @.str.61, ptr noundef @.str.27, i32 noundef %78, i32 noundef 0)
  %80 = icmp ne i32 %79, 0
  br i1 %80, label %82, label %81

81:                                               ; preds = %63
  br label %96

82:                                               ; preds = %63
  %83 = load ptr, ptr %9, align 8, !tbaa !57
  %84 = call ptr @ossl_check_const_OSSL_CMP_ITAV_sk_type(ptr noundef %83)
  %85 = call ptr @OPENSSL_sk_value(ptr noundef %84, i32 noundef 0)
  %86 = call ptr @OSSL_CMP_ITAV_get0_value(ptr noundef %85)
  store ptr %86, ptr %12, align 8, !tbaa !58
  %87 = load ptr, ptr %6, align 8, !tbaa !54
  %88 = getelementptr inbounds nuw %struct.ossl_cmp_itav_st, ptr %87, i32 0, i32 1
  %89 = load ptr, ptr %88, align 8, !tbaa !46
  %90 = load ptr, ptr %12, align 8, !tbaa !58
  %91 = call i32 @ASN1_TYPE_cmp(ptr noundef %89, ptr noundef %90)
  %92 = call i32 @test_int_eq(ptr noundef @.str.13, i32 noundef 377, ptr noundef @.str.62, ptr noundef @.str.27, i32 noundef %91, i32 noundef 0)
  %93 = icmp ne i32 %92, 0
  br i1 %93, label %95, label %94

94:                                               ; preds = %82
  br label %96

95:                                               ; preds = %82
  store i32 1, ptr %13, align 4, !tbaa !9
  br label %96

96:                                               ; preds = %95, %94, %81, %62
  %97 = load ptr, ptr %8, align 8, !tbaa !57
  %98 = call ptr @ossl_check_OSSL_CMP_ITAV_sk_type(ptr noundef %97)
  %99 = call ptr @ossl_check_OSSL_CMP_ITAV_freefunc_type(ptr noundef @OSSL_CMP_ITAV_free)
  call void @OPENSSL_sk_pop_free(ptr noundef %98, ptr noundef %99)
  %100 = load i32, ptr %13, align 4, !tbaa !9
  store i32 %100, ptr %2, align 4
  store i32 1, ptr %14, align 4
  br label %101

101:                                              ; preds = %96, %52, %43, %32, %20
  call void @llvm.lifetime.end.p0(i64 4, ptr %13) #7
  call void @llvm.lifetime.end.p0(i64 8, ptr %12) #7
  call void @llvm.lifetime.end.p0(i64 8, ptr %11) #7
  call void @llvm.lifetime.end.p0(i64 8, ptr %10) #7
  call void @llvm.lifetime.end.p0(i64 8, ptr %9) #7
  call void @llvm.lifetime.end.p0(i64 8, ptr %8) #7
  call void @llvm.lifetime.end.p0(i64 8, ptr %7) #7
  call void @llvm.lifetime.end.p0(i64 8, ptr %6) #7
  call void @llvm.lifetime.end.p0(i64 20, ptr %5) #7
  call void @llvm.lifetime.end.p0(i64 8, ptr %4) #7
  %102 = load i32, ptr %2, align 4
  ret i32 %102
}

; Function Attrs: nounwind uwtable
define internal i32 @test_HDR_generalInfo_push1_items() #0 {
  %1 = alloca i32, align 4
  %2 = alloca ptr, align 8
  %3 = alloca i32, align 4
  %4 = alloca i32, align 4
  call void @llvm.lifetime.start.p0(i64 8, ptr %2) #7
  %5 = call ptr @set_up(ptr noundef @.str.9)
  store ptr %5, ptr %2, align 8, !tbaa !4
  call void @llvm.lifetime.start.p0(i64 4, ptr %3) #7
  store i32 0, ptr %3, align 4, !tbaa !9
  %6 = load ptr, ptr %2, align 8, !tbaa !4
  %7 = icmp eq ptr %6, null
  br i1 %7, label %8, label %9

8:                                                ; preds = %0
  store i32 0, ptr %1, align 4
  store i32 1, ptr %4, align 4
  br label %20

9:                                                ; preds = %0
  %10 = load ptr, ptr %2, align 8, !tbaa !4
  %11 = getelementptr inbounds nuw %struct.test_fixture, ptr %10, i32 0, i32 1
  store i32 1, ptr %11, align 8, !tbaa !11
  %12 = load ptr, ptr %2, align 8, !tbaa !4
  %13 = icmp ne ptr %12, null
  br i1 %13, label %14, label %18

14:                                               ; preds = %9
  %15 = load ptr, ptr %2, align 8, !tbaa !4
  %16 = call i32 @execute_HDR_generalInfo_push1_items_test(ptr noundef %15)
  store i32 %16, ptr %3, align 4, !tbaa !9
  %17 = load ptr, ptr %2, align 8, !tbaa !4
  call void @tear_down(ptr noundef %17)
  br label %18

18:                                               ; preds = %14, %9
  %19 = load i32, ptr %3, align 4, !tbaa !9
  store i32 %19, ptr %1, align 4
  store i32 1, ptr %4, align 4
  br label %20

20:                                               ; preds = %18, %8
  call void @llvm.lifetime.end.p0(i64 4, ptr %3) #7
  call void @llvm.lifetime.end.p0(i64 8, ptr %2) #7
  %21 = load i32, ptr %1, align 4
  ret i32 %21
}