; Function Attrs: nounwind uwtable
define internal range(i32 0, 2) i32 @test_HDR_generalInfo_push1_items() #1 {
  %1 = alloca [8 x i8], align 8
  %2 = alloca [20 x i8], align 16
  %3 = alloca ptr, align 8
  %4 = tail call fastcc ptr @set_up(ptr noundef nonnull @.str.9)
  %5 = icmp eq ptr %4, null
  br i1 %5, label %58, label %6

6:                                                ; preds = %0
  %7 = getelementptr inbounds nuw i8, ptr %4, i64 8
  store i32 1, ptr %7, align 8, !tbaa !4
  call void @llvm.lifetime.start.p0(i64 8, ptr nonnull %1) #8
  store i64 14687496142204465, ptr %1, align 8
  call void @llvm.lifetime.start.p0(i64 20, ptr nonnull %2) #8
  call void @llvm.lifetime.start.p0(i64 8, ptr nonnull %3) #8
  store ptr null, ptr %3, align 8, !tbaa !49
  %8 = tail call ptr @ASN1_INTEGER_new() #8
  %9 = tail call ptr @ASN1_TYPE_new() #8
  %10 = tail call i32 @test_ptr(ptr noundef nonnull @.str.13, i32 noundef 348, ptr noundef nonnull @.str.55, ptr noundef %8) #8
  %.not.i = icmp eq i32 %10, 0
  br i1 %.not.i, label %execute_HDR_generalInfo_push1_items_test.exit, label %11

11:                                               ; preds = %6
  %12 = tail call i32 @test_ptr(ptr noundef nonnull @.str.13, i32 noundef 351, ptr noundef nonnull @.str.56, ptr noundef %9) #8
  %.not19.i = icmp eq i32 %12, 0
  br i1 %.not19.i, label %18, label %13

13:                                               ; preds = %11
  %14 = tail call i32 @ASN1_INTEGER_set(ptr noundef %8, i64 noundef 88) #8
  %15 = icmp ne i32 %14, 0
  %16 = zext i1 %15 to i32
  %17 = tail call i32 @test_true(ptr noundef nonnull @.str.13, i32 noundef 352, ptr noundef nonnull @.str.57, i32 noundef %16) #8
  %.not20.i = icmp eq i32 %17, 0
  br i1 %.not20.i, label %18, label %19

18:                                               ; preds = %13, %11
  tail call void @ASN1_INTEGER_free(ptr noundef %8) #8
  br label %execute_HDR_generalInfo_push1_items_test.exit

19:                                               ; preds = %13
  tail call void @ASN1_TYPE_set(ptr noundef %9, i32 noundef 2, ptr noundef %8) #8
  %20 = call ptr @OBJ_txt2obj(ptr noundef nonnull %1, i32 noundef 1) #8
  %21 = call ptr @OSSL_CMP_ITAV_create(ptr noundef %20, ptr noundef %9) #8
  %22 = call i32 @test_ptr(ptr noundef nonnull @.str.13, i32 noundef 358, ptr noundef nonnull @.str.58, ptr noundef %21) #8
  %.not21.i = icmp eq i32 %22, 0
  br i1 %.not21.i, label %23, label %24

23:                                               ; preds = %19
  call void @ASN1_TYPE_free(ptr noundef %9) #8
  br label %execute_HDR_generalInfo_push1_items_test.exit

24:                                               ; preds = %19
  %25 = call i32 @OSSL_CMP_ITAV_push0_stack_item(ptr noundef nonnull %3, ptr noundef %21) #8
  %26 = icmp ne i32 %25, 0
  %27 = zext i1 %26 to i32
  %28 = call i32 @test_true(ptr noundef nonnull @.str.13, i32 noundef 362, ptr noundef nonnull @.str.59, i32 noundef %27) #8
  %.not22.i = icmp eq i32 %28, 0
  br i1 %.not22.i, label %29, label %30

29:                                               ; preds = %24
  call void @OSSL_CMP_ITAV_free(ptr noundef %21) #8
  br label %execute_HDR_generalInfo_push1_items_test.exit

30:                                               ; preds = %24
  %31 = getelementptr inbounds nuw i8, ptr %4, i64 24
  %32 = load ptr, ptr %31, align 8, !tbaa !13
  %33 = load ptr, ptr %3, align 8, !tbaa !49
  %34 = call i32 @ossl_cmp_hdr_generalInfo_push1_items(ptr noundef %32, ptr noundef %33) #8
  %35 = call i32 @test_int_eq(ptr noundef nonnull @.str.13, i32 noundef 368, ptr noundef nonnull @.str.60, ptr noundef nonnull @.str.18, i32 noundef %34, i32 noundef 1) #8
  %.not23.i = icmp eq i32 %35, 0
  br i1 %.not23.i, label %52, label %36

36:                                               ; preds = %30
  %37 = load ptr, ptr %31, align 8, !tbaa !13
  %38 = getelementptr inbounds nuw i8, ptr %37, i64 88
  %39 = load ptr, ptr %38, align 8, !tbaa !48
  %40 = call ptr @OPENSSL_sk_value(ptr noundef %39, i32 noundef 0) #8
  %41 = call ptr @OSSL_CMP_ITAV_get0_type(ptr noundef %40) #8
  %42 = call i32 @OBJ_obj2txt(ptr noundef nonnull %2, i32 noundef 20, ptr noundef %41, i32 noundef 0) #8
  %43 = call i32 @memcmp(ptr noundef nonnull dereferenceable(8) %1, ptr noundef nonnull dereferenceable(8) %2, i64 noundef 8) #9
  %44 = call i32 @test_int_eq(ptr noundef nonnull @.str.13, i32 noundef 373, ptr noundef nonnull @.str.61, ptr noundef nonnull @.str.27, i32 noundef %43, i32 noundef 0) #8
  %.not24.i = icmp eq i32 %44, 0
  br i1 %.not24.i, label %52, label %45

45:                                               ; preds = %36
  %46 = call ptr @OPENSSL_sk_value(ptr noundef %39, i32 noundef 0) #8
  %47 = call ptr @OSSL_CMP_ITAV_get0_value(ptr noundef %46) #8
  %48 = getelementptr inbounds nuw i8, ptr %21, i64 8
  %49 = load ptr, ptr %48, align 8, !tbaa !39
  %50 = call i32 @ASN1_TYPE_cmp(ptr noundef %49, ptr noundef %47) #8
  %51 = call i32 @test_int_eq(ptr noundef nonnull @.str.13, i32 noundef 377, ptr noundef nonnull @.str.62, ptr noundef nonnull @.str.27, i32 noundef %50, i32 noundef 0) #8
  %.not25.i = icmp ne i32 %51, 0
  %spec.select.i = zext i1 %.not25.i to i32
  br label %52

52:                                               ; preds = %45, %36, %30
  %.0.i = phi i32 [ 0, %36 ], [ 0, %30 ], [ %spec.select.i, %45 ]
  %53 = load ptr, ptr %3, align 8, !tbaa !49
  call void @OPENSSL_sk_pop_free(ptr noundef %53, ptr noundef nonnull @OSSL_CMP_ITAV_free) #8
  br label %execute_HDR_generalInfo_push1_items_test.exit

execute_HDR_generalInfo_push1_items_test.exit:    ; preds = %6, %18, %23, %29, %52
  %.018.i = phi i32 [ %.0.i, %52 ], [ 0, %29 ], [ 0, %23 ], [ 0, %18 ], [ 0, %6 ]
  call void @llvm.lifetime.end.p0(i64 8, ptr nonnull %3) #8
  call void @llvm.lifetime.end.p0(i64 20, ptr nonnull %2) #8
  call void @llvm.lifetime.end.p0(i64 8, ptr nonnull %1) #8
  %54 = getelementptr inbounds nuw i8, ptr %4, i64 24
  %55 = load ptr, ptr %54, align 8, !tbaa !13
  call void @OSSL_CMP_PKIHEADER_free(ptr noundef %55) #8
  %56 = getelementptr inbounds nuw i8, ptr %4, i64 16
  %57 = load ptr, ptr %56, align 8, !tbaa !14
  call void @OSSL_CMP_CTX_free(ptr noundef %57) #8
  call void @CRYPTO_free(ptr noundef nonnull %4, ptr noundef nonnull @.str.13, i32 noundef 28) #8
  br label %58

58:                                               ; preds = %0, %execute_HDR_generalInfo_push1_items_test.exit
  %.06 = phi i32 [ %.018.i, %execute_HDR_generalInfo_push1_items_test.exit ], [ 0, %0 ]
  ret i32 %.06
}